target datalayout = "e-m:e-p270:32:32-p271:32:32-p272:64:64-i64:64-i128:128-f80:128-n8:16:32:64-S128"
target triple = "x86_64-pc-linux-gnu"

%struct.opendir_at_arg = type { i32, ptr }

@rb_cThread = external global i64, align 8

; Function Attrs: nounwind sspstrong uwtable
define internal i32 @gc_for_fd_with_gvl(i32 noundef %0) #0 {
  %2 = alloca i32, align 4
  %3 = alloca i32, align 4
  store i32 %0, ptr %3, align 4, !tbaa !21
  %4 = load i64, ptr @rb_cThread, align 8, !tbaa !7
  %5 = icmp ne i64 %4, 0
  br i1 %5, label %6, label %10

6:                                                ; preds = %1
  %7 = call ptr @rb_thread_call_with_gvl(ptr noundef @with_gvl_gc_for_fd, ptr noundef %3)
  %8 = ptrtoint ptr %7 to i64
  %9 = trunc i64 %8 to i32
  store i32 %9, ptr %2, align 4
  br label %16

10:                                               ; preds = %1
  %11 = load i32, ptr %3, align 4, !tbaa !21
  %12 = call i32 @rb_gc_for_fd(i32 noundef %11)
  %13 = icmp ne i32 %12, 0
  %14 = select i1 %13, i64 20, i64 0
  %15 = trunc i64 %14 to i32
  store i32 %15, ptr %2, align 4
  br label %16

16:                                               ; preds = %10, %6
  %17 = load i32, ptr %2, align 4
  ret i32 %17
}

; Function Attrs: nounwind sspstrong uwtable
define internal ptr @nogvl_opendir_at(ptr noundef %0) #0 {
  %2 = alloca ptr, align 8
  %3 = alloca ptr, align 8
  %4 = alloca ptr, align 8
  %5 = alloca ptr, align 8
  %6 = alloca i32, align 4
  %7 = alloca i32, align 4
  %8 = alloca i32, align 4
  %9 = alloca i32, align 4
  store ptr %0, ptr %3, align 8, !tbaa !14
  call void @llvm.lifetime.start.p0(i64 8, ptr %4) #26
  %10 = load ptr, ptr %3, align 8, !tbaa !14
  store ptr %10, ptr %4, align 8, !tbaa !157
  call void @llvm.lifetime.start.p0(i64 8, ptr %5) #26
  call void @llvm.lifetime.start.p0(i64 4, ptr %6) #26
  store i32 589824, ptr %6, align 4, !tbaa !21
  call void @llvm.lifetime.start.p0(i64 4, ptr %7) #26
  %11 = load ptr, ptr %4, align 8, !tbaa !157
  %12 = getelementptr inbounds nuw %struct.opendir_at_arg, ptr %11, i32 0, i32 0
  %13 = load i32, ptr %12, align 8, !tbaa !154
  %14 = load ptr, ptr %4, align 8, !tbaa !157
  %15 = getelementptr inbounds nuw %struct.opendir_at_arg, ptr %14, i32 0, i32 1
  %16 = load ptr, ptr %15, align 8, !tbaa !156
  %17 = call i32 (i32, ptr, i32, ...) @openat(i32 noundef %13, ptr noundef %16, i32 noundef 589824)
  store i32 %17, ptr %7, align 4, !tbaa !21
  %18 = load i32, ptr %7, align 4, !tbaa !21
  %19 = icmp sge i32 %18, 0
  br i1 %19, label %20, label %23

20:                                               ; preds = %1
  %21 = load i32, ptr %7, align 4, !tbaa !21
  %22 = call ptr @fdopendir(i32 noundef %21)
  br label %24

23:                                               ; preds = %1
  br label %24

24:                                               ; preds = %23, %20
  %25 = phi ptr [ %22, %20 ], [ null, %23 ]
  store ptr %25, ptr %5, align 8, !tbaa !106
  %26 = load ptr, ptr %5, align 8, !tbaa !106
  %27 = icmp ne ptr %26, null
  br i1 %27, label %70, label %28

28:                                               ; preds = %24
  call void @llvm.lifetime.start.p0(i64 4, ptr %8) #26
  %29 = call ptr @rb_errno_ptr()
  %30 = load i32, ptr %29, align 4, !tbaa !21
  store i32 %30, ptr %8, align 4, !tbaa !21
  %31 = load i32, ptr %8, align 4, !tbaa !21
  %32 = call i32 @gc_for_fd_with_gvl(i32 noundef %31)
  switch i32 %32, label %33 [
    i32 0, label %58
  ]

33:                                               ; preds = %28
  %34 = load i32, ptr %7, align 4, !tbaa !21
  %35 = icmp slt i32 %34, 0
  br i1 %35, label %36, label %44

36:                                               ; preds = %33
  %37 = load ptr, ptr %4, align 8, !tbaa !157
  %38 = getelementptr inbounds nuw %struct.opendir_at_arg, ptr %37, i32 0, i32 0
  %39 = load i32, ptr %38, align 8, !tbaa !154
  %40 = load ptr, ptr %4, align 8, !tbaa !157
  %41 = getelementptr inbounds nuw %struct.opendir_at_arg, ptr %40, i32 0, i32 1
  %42 = load ptr, ptr %41, align 8, !tbaa !156
  %43 = call i32 (i32, ptr, i32, ...) @openat(i32 noundef %39, ptr noundef %42, i32 noundef 589824)
  store i32 %43, ptr %7, align 4, !tbaa !21
  br label %44

44:                                               ; preds = %36, %33
  %45 = load i32, ptr %7, align 4, !tbaa !21
  %46 = icmp sge i32 %45, 0
  br i1 %46, label %47, label %50

47:                                               ; preds = %44
  %48 = load i32, ptr %7, align 4, !tbaa !21
  %49 = call ptr @fdopendir(i32 noundef %48)
  store ptr %49, ptr %5, align 8, !tbaa !106
  br label %50

50:                                               ; preds = %47, %44
  %51 = load ptr, ptr %5, align 8, !tbaa !106
  %52 = icmp ne ptr %51, null
  br i1 %52, label %53, label %55

53:                                               ; preds = %50
  %54 = load ptr, ptr %5, align 8, !tbaa !106
  store ptr %54, ptr %2, align 8
  store i32 1, ptr %9, align 4
  br label %67

55:                                               ; preds = %50
  %56 = call ptr @rb_errno_ptr()
  %57 = load i32, ptr %56, align 4, !tbaa !21
  store i32 %57, ptr %8, align 4, !tbaa !21
  br label %58

58:                                               ; preds = %28, %55
  %59 = load i32, ptr %7, align 4, !tbaa !21
  %60 = icmp sge i32 %59, 0
  br i1 %60, label %61, label %64

61:                                               ; preds = %58
  %62 = load i32, ptr %7, align 4, !tbaa !21
  %63 = call i32 @close(i32 noundef %62)
  br label %64

64:                                               ; preds = %61, %58
  %65 = load i32, ptr %8, align 4, !tbaa !21
  call void @rb_errno_set(i32 noundef %65)
  br label %66

66:                                               ; preds = %64
  store i32 0, ptr %9, align 4
  br label %67

67:                                               ; preds = %66, %53
  call void @llvm.lifetime.end.p0(i64 4, ptr %8) #26
  %68 = load i32, ptr %9, align 4
  switch i32 %68, label %72 [
    i32 0, label %69
  ]

69:                                               ; preds = %67
  br label %70

70:                                               ; preds = %69, %24
  %71 = load ptr, ptr %5, align 8, !tbaa !106
  store ptr %71, ptr %2, align 8
  store i32 1, ptr %9, align 4
  br label %72

72:                                               ; preds = %70, %67
  call void @llvm.lifetime.end.p0(i64 4, ptr %7) #26
  call void @llvm.lifetime.end.p0(i64 4, ptr %6) #26
  call void @llvm.lifetime.end.p0(i64 8, ptr %5) #26
  call void @llvm.lifetime.end.p0(i64 8, ptr %4) #26
  %73 = load ptr, ptr %2, align 8
  ret ptr %73
}