; Function Attrs: nounwind sspstrong uwtable
define internal ptr @nogvl_opendir_at(ptr noundef readonly captures(none) %0) #0 {
  %2 = alloca i32, align 4
  %3 = load i32, ptr %0, align 8, !tbaa !150
  %4 = getelementptr inbounds nuw i8, ptr %0, i64 8
  %5 = load ptr, ptr %4, align 8, !tbaa !152
  %6 = tail call i32 (i32, ptr, i32, ...) @openat(i32 noundef %3, ptr noundef %5, i32 noundef 589824) #22
  %7 = icmp sgt i32 %6, -1
  br i1 %7, label %8, label %.thread

8:                                                ; preds = %1
  %9 = tail call ptr @fdopendir(i32 noundef %6) #22
  %.not = icmp eq ptr %9, null
  br i1 %.not, label %.thread, label %31

.thread:                                          ; preds = %1, %8
  %10 = tail call ptr @rb_errno_ptr() #22
  %11 = load i32, ptr %10, align 4, !tbaa !58
  call void @llvm.lifetime.start.p0(i64 4, ptr nonnull %2)
  store i32 %11, ptr %2, align 4, !tbaa !58
  %12 = load i64, ptr @rb_cThread, align 8, !tbaa !7
  %.not.i = icmp eq i64 %12, 0
  br i1 %.not.i, label %13, label %gc_for_fd_with_gvl.exit

13:                                               ; preds = %.thread
  %14 = tail call i32 @rb_gc_for_fd(i32 noundef %11) #22
  %.not1.i = icmp eq i32 %14, 0
  call void @llvm.lifetime.end.p0(i64 4, ptr nonnull %2)
  br i1 %.not1.i, label %gc_for_fd_with_gvl.exit.thread, label %gc_for_fd_with_gvl.exit.thread34

gc_for_fd_with_gvl.exit:                          ; preds = %.thread
  %15 = call ptr @rb_thread_call_with_gvl(ptr noundef nonnull @with_gvl_gc_for_fd, ptr noundef nonnull %2) #22
  %16 = ptrtoint ptr %15 to i64
  call void @llvm.lifetime.end.p0(i64 4, ptr nonnull %2)
  %17 = and i64 %16, 4294967295
  %cond = icmp eq i64 %17, 0
  br i1 %cond, label %gc_for_fd_with_gvl.exit.thread, label %gc_for_fd_with_gvl.exit.thread34

gc_for_fd_with_gvl.exit.thread34:                 ; preds = %13, %gc_for_fd_with_gvl.exit
  %18 = icmp slt i32 %6, 0
  br i1 %18, label %19, label %.thread37

19:                                               ; preds = %gc_for_fd_with_gvl.exit.thread34
  %20 = load i32, ptr %0, align 8, !tbaa !150
  %21 = load ptr, ptr %4, align 8, !tbaa !152
  %22 = call i32 (i32, ptr, i32, ...) @openat(i32 noundef %20, ptr noundef %21, i32 noundef 589824) #22
  %23 = icmp sgt i32 %22, -1
  br i1 %23, label %.thread37, label %.thread41

.thread37:                                        ; preds = %gc_for_fd_with_gvl.exit.thread34, %19
  %.139 = phi i32 [ %22, %19 ], [ %6, %gc_for_fd_with_gvl.exit.thread34 ]
  %24 = call ptr @fdopendir(i32 noundef %.139) #22
  %.not30 = icmp eq ptr %24, null
  br i1 %.not30, label %.thread41, label %31

.thread41:                                        ; preds = %19, %.thread37
  %.14045 = phi i32 [ %.139, %.thread37 ], [ %22, %19 ]
  %25 = call ptr @rb_errno_ptr() #22
  %26 = load i32, ptr %25, align 4, !tbaa !58
  br label %gc_for_fd_with_gvl.exit.thread

gc_for_fd_with_gvl.exit.thread:                   ; preds = %13, %gc_for_fd_with_gvl.exit, %.thread41
  %.021 = phi i32 [ %6, %gc_for_fd_with_gvl.exit ], [ %.14045, %.thread41 ], [ %6, %13 ]
  %.020 = phi i32 [ %11, %gc_for_fd_with_gvl.exit ], [ %26, %.thread41 ], [ %11, %13 ]
  %27 = icmp sgt i32 %.021, -1
  br i1 %27, label %28, label %30

28:                                               ; preds = %gc_for_fd_with_gvl.exit.thread
  %29 = call i32 @close(i32 noundef %.021) #22
  br label %30

30:                                               ; preds = %gc_for_fd_with_gvl.exit.thread, %28
  call void @rb_errno_set(i32 noundef %.020) #22
  br label %31

31:                                               ; preds = %30, %.thread37, %8
  %.123 = phi ptr [ %9, %8 ], [ null, %30 ], [ %24, %.thread37 ]
  ret ptr %.123
}